; Function Attrs: mustprogress nounwind uwtable
define dso_local noundef zeroext i1 @_ZNK4llvm3pdb13PDBSymbolFunc12isDestructorEv(ptr noundef nonnull readonly align 8 captures(none) dereferenceable(32) %0) local_unnamed_addr #0 align 2 {
  %2 = alloca %"class.std::__cxx11::basic_string", align 8
  %3 = getelementptr inbounds nuw i8, ptr %0, i64 24
  %4 = load ptr, ptr %3, align 8, !noalias !42
  %5 = load ptr, ptr %4, align 8, !noalias !42
  %6 = getelementptr inbounds nuw i8, ptr %5, i64 336
  %7 = load ptr, ptr %6, align 8, !noalias !42
  call void %7(ptr dead_on_unwind nonnull writable sret(%"class.std::__cxx11::basic_string") align 8 %2, ptr noundef nonnull align 8 dereferenceable(8) %4) #15
  %8 = call noundef zeroext i1 @_ZNKSt7__cxx1112basic_stringIcSt11char_traitsIcESaIcEE5emptyEv(ptr noundef nonnull align 8 dereferenceable(32) %2) #15
  br i1 %8, label %16, label %9

9:                                                ; preds = %1
  %10 = call noundef nonnull align 1 dereferenceable(1) ptr @_ZNSt7__cxx1112basic_stringIcSt11char_traitsIcESaIcEEixEm(ptr noundef nonnull align 8 dereferenceable(32) %2, i64 noundef 0) #15
  %11 = load i8, ptr %10, align 1
  %12 = icmp eq i8 %11, 126
  br i1 %12, label %16, label %13

13:                                               ; preds = %9
  %14 = call noundef i32 @_ZNKSt7__cxx1112basic_stringIcSt11char_traitsIcESaIcEE7compareEPKc(ptr noundef nonnull align 8 dereferenceable(32) %2, ptr noundef nonnull @.str) #15
  %15 = icmp eq i32 %14, 0
  br label %16

16:                                               ; preds = %13, %9, %1
  %.0 = phi i1 [ false, %1 ], [ true, %9 ], [ %15, %13 ]
  call void @_ZNSt7__cxx1112basic_stringIcSt11char_traitsIcESaIcEED1Ev(ptr noundef nonnull align 8 dereferenceable(32) %2) #15
  ret i1 %.0
}